target datalayout = "e-m:e-p270:32:32-p271:32:32-p272:64:64-i64:64-i128:128-f80:128-n8:16:32:64-S128"
target triple = "x86_64-pc-linux-gnu"

%struct.AVCodecContext = type { ptr, i32, i32, ptr, i32, i32, ptr, ptr, ptr, i64, i32, i32, ptr, i32, %struct.AVRational, %struct.AVRational, %struct.AVRational, i32, i32, i32, i32, i32, %struct.AVRational, i32, i32, i32, i32, i32, i32, i32, i32, i32, i32, i32, ptr, ptr, i32, float, float, float, float, float, float, float, float, float, i32, i32, i32, i32, i32, i32, i32, i32, i32, i32, i32, i32, ptr, ptr, ptr, i32, i32, i32, i32, i32, i32, i32, i32, i32, i32, %struct.AVChannelLayout, i32, i32, i32, i32, i32, i32, i32, i32, ptr, i32, i32, i32, float, float, i32, i32, i32, i32, i32, ptr, i64, i64, float, float, i32, i32, ptr, ptr, i32, i32, i32, i32, i32, ptr, ptr, ptr, ptr, i32, i32, [8 x i64], i32, i32, i32, i32, i32, i32, i32, ptr, ptr, i32, i32, i32, i32, i32, i32, i32, i32, i32, i32, ptr, ptr, i32, i32, ptr, ptr, ptr, ptr, i32, i32, i64, i32, i32, i64, ptr, i64, ptr, i32, ptr, i32 }
%struct.AVRational = type { i32, i32 }
%struct.AVChannelLayout = type { i32, i32, %union.anon.1, ptr }
%union.anon.1 = type { i64 }
%struct.VAAPIEncodeContext = type { %struct.FFHWBaseEncodeContext, ptr, i32, i32, i32, i32, i32, i32, ptr, ptr, i32, i32, i32, i32, i32, i32, [4 x %struct._VAConfigAttrib], i32, i32, i32, ptr, ptr, [4 x i32], [4 x ptr], [4 x i64], i32, %struct._VAEncMiscParameterRateControl, %struct._VAEncMiscParameterHRD, %struct._VAEncMiscParameterFrameRate, %struct._VAEncMiscParameterBufferMaxFrameSize, %struct._VAEncMiscParameterBufferQualityLevel, ptr, ptr, i32, i32, i32, i32, i32, i32, [20 x i32], [22 x i32], [21 x i32], [23 x i32], i32, i32, ptr, i32, i32 }
%struct.FFHWBaseEncodeContext = type { ptr, ptr, ptr, i32, i32, i32, i32, i32, i32, ptr, ptr, ptr, ptr, ptr, ptr, ptr, ptr, [2 x ptr], i32, i64, i64, i64, i64, i64, i64, i64, [112 x i64], i32, i32, i32, i32, i32, i32, i32, i32, i32, i32, i32, i32, i32, i32, i32, i32, ptr, i32, ptr, i32, ptr }
%struct._VAConfigAttrib = type { i32, i32 }
%struct._VAEncMiscParameterRateControl = type { i32, i32, i32, i32, i32, i32, %union.anon.2, i32, i32, i32, i32, [4 x i32] }
%union.anon.2 = type { %struct.anon }
%struct.anon = type { i32 }
%struct._VAEncMiscParameterHRD = type { i32, i32, [4 x i32] }
%struct._VAEncMiscParameterFrameRate = type { i32, %union.anon.3, [4 x i32] }
%union.anon.3 = type { %struct.anon.4 }
%struct.anon.4 = type { i32 }
%struct._VAEncMiscParameterBufferMaxFrameSize = type { i32, i32, [4 x i32] }
%struct._VAEncMiscParameterBufferQualityLevel = type { i32, [4 x i32] }
%struct.VAAPIEncodeH265Context = type { %struct.VAAPIEncodeContext, i32, i32, i32, i32, i32, i32, i32, i32, i32, i32, i32, %struct.FFHWBaseEncodeH265, %struct.FFHWBaseEncodeH265Opts, %struct.H265RawAUD, %struct.H265RawSlice, %struct.SEIRawMasteringDisplayColourVolume, %struct.SEIRawContentLightLevelInfo, %struct.SEIRawUserDataRegistered, ptr, ptr, %struct.CodedBitstreamFragment, i32, i32 }
%struct.FFHWBaseEncodeH265 = type { %struct.H265RawVPS, %struct.H265RawSPS, %struct.H265RawPPS, i32 }
%struct.H265RawVPS = type { %struct.H265RawNALUnitHeader, i8, i8, i8, i8, i8, i8, %struct.H265RawProfileTierLevel, i8, [7 x i8], [7 x i8], [7 x i32], i8, i16, [1024 x [63 x i8]], i8, i32, i32, i8, i32, i16, [1024 x i16], [1024 x i8], [1024 x %struct.H265RawHRDParameters], i8, %struct.H265RawExtensionData }
%struct.H265RawNALUnitHeader = type { i8, i8, i8 }
%struct.H265RawProfileTierLevel = type { i8, i8, i8, [32 x i8], i8, i8, i8, i8, i8, i8, i8, i8, i8, i8, i8, i8, i8, i8, i8, i8, [7 x i8], [7 x i8], [7 x i8], [7 x i8], [7 x i8], [7 x [32 x i8]], [7 x i8], [7 x i8], [7 x i8], [7 x i8], [7 x i8], [7 x i8], [7 x i8], [7 x i8], [7 x i8], [7 x i8], [7 x i8], [7 x i8], [7 x i8], [7 x i8], [7 x i8], [7 x i8] }
%struct.H265RawHRDParameters = type { i8, i8, i8, i8, i8, i8, i8, i8, i8, i8, i8, i8, i8, [7 x i8], [7 x i8], [7 x i16], [7 x i8], [7 x i8], [7 x %struct.H265RawSubLayerHRDParameters], [7 x %struct.H265RawSubLayerHRDParameters] }
%struct.H265RawSubLayerHRDParameters = type { [32 x i32], [32 x i32], [32 x i32], [32 x i32], [32 x i8] }
%struct.H265RawExtensionData = type { ptr, ptr, i64 }
%struct.H265RawSPS = type { %struct.H265RawNALUnitHeader, i8, i8, i8, i8, %struct.H265RawProfileTierLevel, i8, i8, i8, i8, i8, i16, i16, i8, i16, i16, i16, i16, i8, i8, i8, i8, [7 x i8], [7 x i8], [7 x i32], i8, i8, i8, i8, i8, i8, i8, i8, i8, i8, %struct.H265RawScalingList, i8, i8, i8, i8, i8, i8, i8, i8, i8, [64 x %struct.H265RawSTRefPicSet], i8, i8, [32 x i16], [32 x i8], i8, i8, i8, %struct.H265RawVUI, i8, i8, i8, i8, i8, i8, %struct.H265RawExtensionData, i8, i8, i8, i8, i8, i8, i8, i8, i8, i8, i8, i8, i8, i8, i8, [3 x [128 x i16]], i8, i8, i8 }
%struct.H265RawScalingList = type { [4 x [6 x i8]], [4 x [6 x i8]], [4 x [6 x i16]], [4 x [6 x [64 x i8]]] }
%struct.H265RawSTRefPicSet = type { i8, i8, i8, i16, [16 x i8], [16 x i8], i8, i8, [16 x i16], [16 x i8], [16 x i16], [16 x i8] }
%struct.H265RawVUI = type { i8, i8, i16, i16, i8, i8, i8, i8, i8, i8, i8, i8, i8, i8, i8, i8, i8, i8, i8, i8, i16, i16, i16, i16, i8, i32, i32, i8, i32, i8, %struct.H265RawHRDParameters, i8, i8, i8, i8, i16, i8, i8, i8, i8 }
%struct.H265RawPPS = type { %struct.H265RawNALUnitHeader, i8, i8, i8, i8, i8, i8, i8, i8, i8, i8, i8, i8, i8, i8, i8, i8, i8, i8, i8, i8, i8, i8, i8, i8, i8, [20 x i16], [22 x i16], i8, i8, i8, i8, i8, i8, i8, i8, %struct.H265RawScalingList, i8, i8, i8, i8, i8, i8, i8, i8, i8, %struct.H265RawExtensionData, i8, i8, i8, i8, i8, [6 x i8], [6 x i8], i8, i8, i8, i8, i8, i8, i8, i8, i8, i8, i8, i8, i8, [3 x [128 x i16]], i8, i8, i8, i8, [64 x i8], [64 x i8], [64 x i16], [64 x i16], [64 x i16], [64 x i16], [64 x i8], [64 x i16], [64 x i16], [64 x i16], [64 x i16], [64 x i8], [64 x i8], [64 x i8], [64 x i8], [64 x i8], i8, i8, [62 x i8], i8, i8, i8, i8, i8, i8, i8, i8, i16, i16, [2 x i8], [12 x [2 x [2 x [4 x i8]]]], [12 x [2 x [2 x [4 x [3 x i8]]]]], [12 x [2 x [2 x [4 x [3 x i32]]]]], [12 x [2 x [2 x [4 x [3 x i8]]]]] }
%struct.FFHWBaseEncodeH265Opts = type { i32, i32, i32, i32, i32, i32, i32, i32, [22 x i32], [22 x i32] }
%struct.H265RawAUD = type { %struct.H265RawNALUnitHeader, i8 }
%struct.H265RawSlice = type { %struct.H265RawSliceHeader, ptr, ptr, i64, i32 }
%struct.H265RawSliceHeader = type { %struct.H265RawNALUnitHeader, i8, i8, i8, i8, i16, [8 x i8], i8, i8, i8, i16, i8, %struct.H265RawSTRefPicSet, i8, i8, i8, [16 x i8], [16 x i8], [16 x i8], [16 x i8], [16 x i32], i8, i8, i8, i8, i8, i8, i8, [16 x i8], i8, [16 x i8], i8, i8, i8, i8, i8, i8, [16 x i8], [16 x i8], [16 x i8], [16 x i16], [16 x [2 x i8]], [16 x [2 x i16]], [16 x i8], [16 x i8], [16 x i8], [16 x i16], [16 x [2 x i8]], [16 x [2 x i16]], i8, i8, i8, i8, i8, i8, i8, i8, i8, i8, i8, i8, i8, i8, i16, i8, [2700 x i32], i16, [256 x i8] }
%struct.SEIRawMasteringDisplayColourVolume = type { [3 x i16], [3 x i16], i16, i16, i32, i32 }
%struct.SEIRawContentLightLevelInfo = type { i16, i16 }
%struct.SEIRawUserDataRegistered = type { i8, i8, ptr, i64 }
%struct.CodedBitstreamFragment = type { ptr, i64, i64, ptr, i32, i32, ptr }

@.str.82 = private unnamed_addr constant [55 x i8] c"Invalid level %d: must fit in 8-bit unsigned integer.\0A\00", align 1

; Function Attrs: cold nounwind optsize uwtable
define internal i32 @vaapi_encode_h265_init(ptr noundef %0) #0 {
  %2 = alloca i32, align 4
  %3 = alloca ptr, align 8
  %4 = alloca ptr, align 8
  %5 = alloca ptr, align 8
  %6 = alloca i32, align 4
  store ptr %0, ptr %3, align 8, !tbaa !4
  call void @llvm.lifetime.start.p0(i64 8, ptr %4) #10
  %7 = load ptr, ptr %3, align 8, !tbaa !4
  %8 = getelementptr inbounds nuw %struct.AVCodecContext, ptr %7, i32 0, i32 6
  %9 = load ptr, ptr %8, align 8, !tbaa !9
  store ptr %9, ptr %4, align 8, !tbaa !29
  call void @llvm.lifetime.start.p0(i64 8, ptr %5) #10
  %10 = load ptr, ptr %3, align 8, !tbaa !4
  %11 = getelementptr inbounds nuw %struct.AVCodecContext, ptr %10, i32 0, i32 6
  %12 = load ptr, ptr %11, align 8, !tbaa !9
  store ptr %12, ptr %5, align 8, !tbaa !31
  %13 = load ptr, ptr %4, align 8, !tbaa !29
  %14 = getelementptr inbounds nuw %struct.VAAPIEncodeContext, ptr %13, i32 0, i32 1
  store ptr @vaapi_encode_type_h265, ptr %14, align 8, !tbaa !33
  %15 = load ptr, ptr %3, align 8, !tbaa !4
  %16 = getelementptr inbounds nuw %struct.AVCodecContext, ptr %15, i32 0, i32 121
  %17 = load i32, ptr %16, align 8, !tbaa !53
  %18 = icmp eq i32 %17, -99
  br i1 %18, label %19, label %25

19:                                               ; preds = %1
  %20 = load ptr, ptr %5, align 8, !tbaa !31
  %21 = getelementptr inbounds nuw %struct.VAAPIEncodeH265Context, ptr %20, i32 0, i32 7
  %22 = load i32, ptr %21, align 8, !tbaa !54
  %23 = load ptr, ptr %3, align 8, !tbaa !4
  %24 = getelementptr inbounds nuw %struct.AVCodecContext, ptr %23, i32 0, i32 121
  store i32 %22, ptr %24, align 8, !tbaa !53
  br label %25

25:                                               ; preds = %19, %1
  %26 = load ptr, ptr %3, align 8, !tbaa !4
  %27 = getelementptr inbounds nuw %struct.AVCodecContext, ptr %26, i32 0, i32 122
  %28 = load i32, ptr %27, align 4, !tbaa !78
  %29 = icmp eq i32 %28, -99
  br i1 %29, label %30, label %36

30:                                               ; preds = %25
  %31 = load ptr, ptr %5, align 8, !tbaa !31
  %32 = getelementptr inbounds nuw %struct.VAAPIEncodeH265Context, ptr %31, i32 0, i32 8
  %33 = load i32, ptr %32, align 4, !tbaa !79
  %34 = load ptr, ptr %3, align 8, !tbaa !4
  %35 = getelementptr inbounds nuw %struct.AVCodecContext, ptr %34, i32 0, i32 122
  store i32 %33, ptr %35, align 4, !tbaa !78
  br label %36

36:                                               ; preds = %30, %25
  %37 = load ptr, ptr %3, align 8, !tbaa !4
  %38 = getelementptr inbounds nuw %struct.AVCodecContext, ptr %37, i32 0, i32 122
  %39 = load i32, ptr %38, align 4, !tbaa !78
  %40 = icmp ne i32 %39, -99
  br i1 %40, label %41, label %52

41:                                               ; preds = %36
  %42 = load ptr, ptr %3, align 8, !tbaa !4
  %43 = getelementptr inbounds nuw %struct.AVCodecContext, ptr %42, i32 0, i32 122
  %44 = load i32, ptr %43, align 4, !tbaa !78
  %45 = and i32 %44, -256
  %46 = icmp ne i32 %45, 0
  br i1 %46, label %47, label %52

47:                                               ; preds = %41
  %48 = load ptr, ptr %3, align 8, !tbaa !4
  %49 = load ptr, ptr %3, align 8, !tbaa !4
  %50 = getelementptr inbounds nuw %struct.AVCodecContext, ptr %49, i32 0, i32 122
  %51 = load i32, ptr %50, align 4, !tbaa !78
  call void (ptr, i32, ptr, ...) @av_log(ptr noundef %48, i32 noundef 16, ptr noundef @.str.82, i32 noundef %51)
  store i32 -22, ptr %2, align 4
  store i32 1, ptr %6, align 4
  br label %68

52:                                               ; preds = %41, %36
  %53 = load ptr, ptr %4, align 8, !tbaa !29
  %54 = getelementptr inbounds nuw %struct.VAAPIEncodeContext, ptr %53, i32 0, i32 7
  store i32 13, ptr %54, align 4, !tbaa !80
  %55 = load ptr, ptr %5, align 8, !tbaa !31
  %56 = getelementptr inbounds nuw %struct.VAAPIEncodeH265Context, ptr %55, i32 0, i32 5
  %57 = load i32, ptr %56, align 8, !tbaa !81
  %58 = icmp sgt i32 %57, 0
  br i1 %58, label %59, label %65

59:                                               ; preds = %52
  %60 = load ptr, ptr %5, align 8, !tbaa !31
  %61 = getelementptr inbounds nuw %struct.VAAPIEncodeH265Context, ptr %60, i32 0, i32 5
  %62 = load i32, ptr %61, align 8, !tbaa !81
  %63 = load ptr, ptr %4, align 8, !tbaa !29
  %64 = getelementptr inbounds nuw %struct.VAAPIEncodeContext, ptr %63, i32 0, i32 6
  store i32 %62, ptr %64, align 8, !tbaa !82
  br label %65

65:                                               ; preds = %59, %52
  %66 = load ptr, ptr %3, align 8, !tbaa !4
  %67 = call i32 @ff_vaapi_encode_init(ptr noundef %66)
  store i32 %67, ptr %2, align 4
  store i32 1, ptr %6, align 4
  br label %68

68:                                               ; preds = %65, %47
  call void @llvm.lifetime.end.p0(i64 8, ptr %5) #10
  call void @llvm.lifetime.end.p0(i64 8, ptr %4) #10
  %69 = load i32, ptr %2, align 4
  ret i32 %69
}