; Function Attrs: cold nounwind optsize uwtable
define internal i32 @vaapi_encode_h265_init(ptr noundef %0) #0 {
  %2 = getelementptr inbounds nuw i8, ptr %0, i64 32
  %3 = load ptr, ptr %2, align 8, !tbaa !4
  %4 = getelementptr inbounds nuw i8, ptr %3, i64 1192
  store ptr @vaapi_encode_type_h265, ptr %4, align 8, !tbaa !27
  %5 = getelementptr inbounds nuw i8, ptr %0, i64 688
  %6 = load i32, ptr %5, align 8, !tbaa !47
  %7 = icmp eq i32 %6, -99
  br i1 %7, label %8, label %11

8:                                                ; preds = %1
  %9 = getelementptr inbounds nuw i8, ptr %3, i64 2000
  %10 = load i32, ptr %9, align 8, !tbaa !48
  store i32 %10, ptr %5, align 8, !tbaa !47
  br label %11

11:                                               ; preds = %8, %1
  %12 = getelementptr inbounds nuw i8, ptr %0, i64 692
  %13 = load i32, ptr %12, align 4, !tbaa !72
  %14 = icmp eq i32 %13, -99
  br i1 %14, label %15, label %18

15:                                               ; preds = %11
  %16 = getelementptr inbounds nuw i8, ptr %3, i64 2004
  %17 = load i32, ptr %16, align 4, !tbaa !73
  store i32 %17, ptr %12, align 4, !tbaa !72
  br label %18

18:                                               ; preds = %15, %11
  %19 = phi i32 [ %17, %15 ], [ %13, %11 ]
  %.not = icmp eq i32 %19, -99
  %.not20 = icmp ult i32 %19, 256
  %or.cond = or i1 %.not, %.not20
  br i1 %or.cond, label %21, label %20

20:                                               ; preds = %18
  tail call void (ptr, i32, ptr, ...) @av_log(ptr noundef nonnull %0, i32 noundef 16, ptr noundef nonnull @.str.82, i32 noundef %19) #9
  br label %30

21:                                               ; preds = %18
  %22 = getelementptr inbounds nuw i8, ptr %3, i64 1220
  store i32 13, ptr %22, align 4, !tbaa !74
  %23 = getelementptr inbounds nuw i8, ptr %3, i64 1992
  %24 = load i32, ptr %23, align 8, !tbaa !75
  %25 = icmp sgt i32 %24, 0
  br i1 %25, label %26, label %28

26:                                               ; preds = %21
  %27 = getelementptr inbounds nuw i8, ptr %3, i64 1216
  store i32 %24, ptr %27, align 8, !tbaa !76
  br label %28

28:                                               ; preds = %26, %21
  %29 = tail call i32 @ff_vaapi_encode_init(ptr noundef nonnull %0) #9
  br label %30

30:                                               ; preds = %28, %20
  %.0 = phi i32 [ -22, %20 ], [ %29, %28 ]
  ret i32 %.0
}